; Function Attrs: mustprogress uwtable
define noundef zeroext i1 @_ZNK7Imf_3_217ScanLineInputFile21isOptimizationEnabledEv(ptr nocapture noundef nonnull readonly align 8 dereferenceable(24) %this) local_unnamed_addr #3 align 2 personality ptr @__gxx_personality_v0 {
entry:
  %_data = getelementptr inbounds i8, ptr %this, i64 8
  %0 = load ptr, ptr %_data, align 8
  %slices = getelementptr inbounds i8, ptr %0, i64 256
  %slices.val = load ptr, ptr %slices, align 8
  %1 = getelementptr i8, ptr %0, i64 264
  %slices.val1 = load ptr, ptr %1, align 8
  %cmp = icmp eq ptr %slices.val1, %slices.val
  br i1 %cmp, label %if.then, label %if.end

if.then:                                          ; preds = %entry
  %exception = tail call ptr @__cxa_allocate_exception(i64 72) #28
  invoke void @_ZN7Iex_3_26ArgExcC1EPKc(ptr noundef nonnull align 8 dereferenceable(72) %exception, ptr noundef nonnull @.str.14)
          to label %invoke.cont unwind label %lpad

invoke.cont:                                      ; preds = %if.then
  tail call void @__cxa_throw(ptr nonnull %exception, ptr nonnull @_ZTIN7Iex_3_26ArgExcE, ptr nonnull @_ZN7Iex_3_26ArgExcD1Ev) #31
  unreachable

lpad:                                             ; preds = %if.then
  %2 = landingpad { ptr, i32 }
          cleanup
  tail call void @__cxa_free_exception(ptr %exception) #28
  resume { ptr, i32 } %2

if.end:                                           ; preds = %entry
  %optimizationMode = getelementptr inbounds i8, ptr %0, i64 328
  %3 = load i8, ptr %optimizationMode, align 8
  %4 = and i8 %3, 1
  %tobool = icmp ne i8 %4, 0
  ret i1 %tobool
}